(ifuzztools.cfg_helper
ConfigHelper
p1
(dp2
S'max_seed'
p3
L10000000000L
sS'minimizecrashers'
p4
I1
sS'zzuf_log_out'
p5
S'/mnt/hgfs/fuzz/crashers/jasper/ie.jpc/results/zzuf_log.txt'
p6
sS'cfg'
p7
(iConfigParser
RawConfigParser
p8
(dp9
S'_defaults'
p10
(dp11
sS'_sections'
p12
(dp13
S'timeouts'
p14
(dp15
S'valgrindtimeout'
p16
S'30'
p17
sS'progtimeout'
p18
S'3'
sS'gdbtimeout'
p19
S'10'
p20
sS'zzuftimeout'
p21
S'1'
sS'killproctimeout'
p22
S'10'
p23
sS'__name__'
p24
g14
sS'watchdogtimeout'
p25
S'3600'
p26
ssS'zzuf'
p27
(dp28
g24
g27
sS'start_seed'
p29
S'0'
sS'seed_interval'
p30
S'500'
p31
sS'max_seed'
p32
S'10000000000'
p33
sS'copymode'
p34
S'0'
ssS'directories'
p35
(dp36
g24
g35
sS'scriptlocation'
p37
S'/mnt/hgfs/fuzz'
p38
sS'seedsdir'
p39
S'/mnt/hgfs/fuzz/seeds'
p40
sS'outputdir'
p41
S'/mnt/hgfs/fuzz/crashers'
p42
sS'localfuzzdir'
p43
S'/home/fuzz/fuzzing'
p44
ssS'target'
p45
(dp46
S'killprocname'
p47
S'jasper'
p48
sS'seedfile'
p49
S'ie.jpc'
p50
sS'postargs'
p51
S'-F /dev/null -T bmp'
p52
sS'program'
p53
S'/usr/local/bin/jasper'
p54
sg24
g45
sS'preargs'
p55
S'-f'
p56
ssS'verifier'
p57
(dp58
S'minimizecrashers'
p59
S'1'
sS'savefailedasserts'
p60
S'0'
sS'manualcutoff'
p61
S'10'
p62
sS'keepduplicates'
p63
S'0'
sg24
g57
sS'verifycrashers'
p64
S'1'
sS'backtracelevels'
p65
S'5'
sssS'_dict'
p66
c__builtin__
dict
p67
sbsS'lastseedfile'
p68
S'/mnt/hgfs/fuzz/crashers/jasper/ie.jpc/lastseed'
p69
sS'progtimeout'
p70
I3
sS'manualcutoff'
p71
I10
sS'cmdline'
p72
S'/usr/local/bin/jasper -f ie.jpc -F /dev/null -T bmp'
p73
sS'backtracelevels'
p74
I5
sS'zzuftimeout'
p75
F1
sS'uniq_log'
p76
S'/mnt/hgfs/fuzz/crashers/jasper/ie.jpc/uniquelog.txt'
p77
sS'outputdir'
p78
g42
sS'crashexitcodesfile'
p79
S'/home/fuzz/fuzzing/jasper/ie.jpc/crashexitcodes'
p80
sS'fuzzrun_state_file'
p81
S'/mnt/hgfs/fuzz/crashers/fuzz_run.pkl'
p82
sS'copymode'
p83
I0
sS'seedfile'
p84
g50
sS'fullpathseedfile'
p85
S'/mnt/hgfs/fuzz/seeds/ie.jpc'
p86
sS'results_dir'
p87
S'/mnt/hgfs/fuzz/crashers/jasper/ie.jpc/results'
p88
sS'gdbtimeout'
p89
I10
sS'postargs'
p90
g52
sS'program'
p91
g54
sS'watchdogtimeout'
p92
I3600
sS'progargs'
p93
S'-f /home/fuzz/fuzzing/jasper/ie.jpc/ie.jpc -F /dev/null -T bmp'
p94
sS'seed_interval'
p95
I500
sS'killprocname'
p96
g48
sS'localfuzzdir'
p97
g44
sS'seedsdir'
p98
g40
sS'fullpathcmdlinelist'
p99
(lp100
g54
ag56
aS'/home/fuzz/fuzzing/jasper/ie.jpc/ie.jpc'
p101
ag52
asS'fullpathoriginal'
p102
S'/home/fuzz/fuzzing/jasper/ie.jpc/ie.jpc'
p103
sS'killproctimeout'
p104
I10
sS'verifycrashers'
p105
I1
sS'fullpathcmdline'
p106
S'/usr/local/bin/jasper -f /home/fuzz/fuzzing/jasper/ie.jpc/ie.jpc -F /dev/null -T bmp'
p107
sS'preargs'
p108
g56
sS'start_seed'
p109
I0
sS'watchdogfile'
p110
S'/tmp/fuzzing'
p111
sS'zzuf_log_file'
p112
S'/home/fuzz/fuzzing/jasper/ie.jpc/zzuf_log.txt'
p113
sS'killscript'
p114
S'killproc.sh'
p115
sS'valgrindtimeout'
p116
I30
sS'keepduplicates'
p117
I00
sS'fullpathlocalfuzzdir'
p118
S'/home/fuzz/fuzzing/jasper/ie.jpc'
p119
sS'fullpathoutputdir'
p120
S'/mnt/hgfs/fuzz/crashers/jasper/ie.jpc'
p121
sS'range_log'
p122
S'/mnt/hgfs/fuzz/crashers/jasper/ie.jpc/rangelog.txt'
p123
sb.(ifuzztools.seedrange
SeedRange
p1
(dp2
S'max_seed'
p3
L10000000000L
sS's2'
p4
I511928
sS's1'
p5
I511808
sS'interval'
p6
I500
sS'initial_seed'
p7
I0
sS'_s1_bookmark'
p8
I511804
sb.(ifuzztools.rangefinder
RangeFinder
p1
(dp2
S'neighbors'
p3
(dp4
(ifuzztools.rangefinder
Range
p5
(dp6
S'max'
p7
cnumpy.core.multiarray
scalar
p8
(cnumpy
dtype
p9
(S'f8'
I0
I1
tRp10
(I3
S'<'
NNNI-1
I-1
I0
tbS'\xb4\x06%\x16\xd0\x91x?'
tRp11
sS'mean'
p12
g8
(g10
S'\x10\xca\x1e\xc3\x90\xe0s?'
tRp13
sS'span'
p14
g8
(g10
S'\x92\xf2\x18L\xfd\xc4b?'
tRp15
sS'min'
p16
g8
(g10
S'\xd6\x1a1\xe0\xa2^n?'
tRp17
sb(lp18
(ifuzztools.rangefinder
Range
p19
(dp20
g7
g17
sg12
g8
(g10
S'\xb4\x06%\x16\xd0\x91h?'
tRp21
sg14
g8
(g10
S'\x8aP0(K3W?'
tRp22
sg16
g8
(g10
S'\x91\xf2\x18L\xfd\xc4b?'
tRp23
sba(ifuzztools.rangefinder
Range
p24
(dp25
g7
g8
(g10
S'\x10\xca\x1e\xc3\x90\xe0\x83?'
tRp26
sg12
g8
(g10
S'\xb5\xa6\x18g\xbc\x14\x80?'
tRp27
sg14
g8
(g10
S'\xd8\x1a1\xe0\xa2^n?'
tRp28
sg16
g11
sbas(ifuzztools.rangefinder
Range
p29
(dp30
g7
g8
(g10
S'\xe4w]p7\xb9A?'
tRp31
sg12
g8
(g10
S'.)\x03\xe0^\xad<?'
tRp32
sg14
g8
(g10
S'f\x1a\xdf\x02@\x14+?'
tRp33
sg16
g8
(g10
S'\x95bK\xdfN\xe85?'
tRp34
sb(lp35
(ifuzztools.rangefinder
Range
p36
(dp37
g7
g34
sg12
g8
(g10
S'\xe4w]p7\xb91?'
tRp38
sg14
g8
(g10
S'\xc4\xaa\xb7\xbb]\xbc ?'
tRp39
sg16
g8
(g10
S'f\x1a\xdf\x02@\x14+?'
tRp40
sba(ifuzztools.rangefinder
Range
p41
(dp42
g7
g8
(g10
S'/)\x03\xe0^\xadL?'
tRp43
sg12
g8
(g10
S'\x8aP0(K3G?'
tRp44
sg14
g8
(g10
S'\x96bK\xdfN\xe85?'
tRp45
sg16
g31
sbas(ifuzztools.rangefinder
Range
p46
(dp47
g7
g8
(g10
S'9Y\xe0\x97\xe0\x0c\xa5?'
tRp48
sg12
g8
(g10
S'\x8c/\x1a~\xb1\x07\xa1?'
tRp49
sg14
g8
(g10
S'\xb5\xa6\x18g\xbc\x14\x90?'
tRp50
sg16
g8
(g10
S'\xbd\x0b\xa8\xc8\x04\x05\x9a?'
tRp51
sb(lp52
(ifuzztools.rangefinder
Range
p53
(dp54
g7
g51
sg12
g8
(g10
S'9Y\xe0\x97\xe0\x0c\x95?'
tRp55
sg14
g8
(g10
S'\x10\xca\x1e\xc3\x90\xe0\x83?'
tRp56
sg16
g8
(g10
S'\xb5\xa6\x18g\xbc\x14\x90?'
tRp57
sba(ifuzztools.rangefinder
Range
p58
(dp59
g7
g8
(g10
S'\x8c/\x1a~\xb1\x07\xb1?'
tRp60
sg12
g8
(g10
S'(\\\n\xca!\x8e\xab?'
tRp61
sg14
g8
(g10
S'\xbe\x0b\xa8\xc8\x04\x05\x9a?'
tRp62
sg16
g48
sbasg53
(lp63
(ifuzztools.rangefinder
Range
p64
(dp65
g7
g57
sg12
g8
(g10
S'\xbd\x0b\xa8\xc8\x04\x05\x8a?'
tRp66
sg14
g8
(g10
S'\xb4\x06%\x16\xd0\x91x?'
tRp67
sg16
g26
sbag46
as(ifuzztools.rangefinder
Range
p68
(dp69
g7
g8
(g10
S'\x8aP0(K3W?'
tRp70
sg12
g8
(g10
S'\x91\xf2\x18L\xfd\xc4R?'
tRp71
sg14
g8
(g10
S'\xe5w]p7\xb9A?'
tRp72
sg16
g43
sb(lp73
g41
a(ifuzztools.rangefinder
Range
p74
(dp75
g7
g23
sg12
g8
(g10
S'\xd6\x1a1\xe0\xa2^^?'
tRp76
sg14
g8
(g10
S'0)\x03\xe0^\xadL?'
tRp77
sg16
g70
sbas(ifuzztools.rangefinder
Range
p78
(dp79
g7
g8
(g10
S'oK\x90\xad\xb7\x9b\xe7?'
tRp80
sg12
g8
(g10
S'\xf1\\m\\x\x19\xe3?'
tRp81
sg14
g8
(g10
S'\xf8\xb9\x8bD\xfd\x08\xd2?'
tRp82
sg16
g8
(g10
S'\xe6\xdc\x94\x16r.\xdd?'
tRp83
sb(lp84
(ifuzztools.rangefinder
Range
p85
(dp86
g7
g83
sg12
g8
(g10
S'oK\x90\xad\xb7\x9b\xd7?'
tRp87
sg14
g8
(g10
S'\xdcE\x12\xa4\xe9J\xc6?'
tRp88
sg16
g8
(g10
S'\xf8\xb9\x8bD\xfd\x08\xd2?'
tRp89
sba(ifuzztools.rangefinder
Range
p90
(dp91
g7
F0.99995122902848221
sg12
g8
(g10
S'6\x81\xec\xb2\xa8\xcd\xeb?'
tRp92
sg14
g8
(g10
S'\x1a\xd7p\x15\xc4\xc7\xd0?'
tRp93
sg16
g80
sbas(ifuzztools.rangefinder
Range
p94
(dp95
g7
g8
(g10
S')\\\n\xca!\x8e\xbb?'
tRp96
sg12
g8
(g10
S'\xdaE\x12\xa4\xe9J\xb6?'
tRp97
sg14
g8
(g10
S':Y\xe0\x97\xe0\x0c\xa5?'
tRp98
sg16
g60
sb(lp99
g58
a(ifuzztools.rangefinder
Range
p100
(dp101
g7
g8
(g10
S'\xdbE\x12\xa4\xe9J\xc6?'
tRp102
sg12
g8
(g10
S'\xf8\xb9\x8bD\xfd\x08\xc2?'
tRp103
sg14
g8
(g10
S'\x8d/\x1a~\xb1\x07\xb1?'
tRp104
sg16
g96
sbasg19
(lp105
g74
ag5
asg90
(lp106
g78
asg58
(lp107
g46
ag94
as(ifuzztools.rangefinder
Range
p108
(dp109
g7
g89
sg12
g8
(g10
S'\xe6\xdc\x94\x16r.\xcd?'
tRp110
sg14
g8
(g10
S'*\\\n\xca!\x8e\xbb?'
tRp111
sg16
g102
sb(lp112
g100
ag85
asg24
(lp113
g5
ag64
asg64
(lp114
g24
ag53
asg74
(lp115
g68
ag19
as(ifuzztools.rangefinder
Range
p116
(dp117
g7
g8
(g10
S'\xc4\xaa\xb7\xbb]\xbc ?'
tRp118
sg12
g8
(g10
S'f\x1a\xdf\x02@\x14\x1b?'
tRp119
sg14
g8
(g10
S'\x88\xec@\xd2\xed\x91\t?'
tRp120
sg16
g8
(g10
S'D\xdfN\x8e\xc4\xaf\x14?'
tRp121
sb(lp122
(ifuzztools.rangefinder
Range
p123
(dp124
g7
g121
sg12
g8
(g10
S'\xc4\xaa\xb7\xbb]\xbc\x10?'
tRp125
sg14
g8
(g10
S'\x04\xa4\xb9\x946\x9b\xff>'
tRp126
sg16
F4.8770971517752635e-05
sba(ifuzztools.rangefinder
Range
p127
(dp128
g7
g40
sg12
g8
(g10
S'\x95bK\xdfN\xe8%?'
tRp129
sg14
g8
(g10
S'D\xdfN\x8e\xc4\xaf\x14?'
tRp130
sg16
g118
sbasg85
(lp131
g108
ag78
asg123
(lp132
g116
asg41
(lp133
g29
ag68
asg36
(lp134
g127
ag29
asg127
(lp135
g116
ag36
asg100
(lp136
g94
ag108
assS'range_miss_counters'
p137
(dp138
g5
I500
sg29
I500
sg46
I2500
sg53
I9432
sg68
I9500
sg78
I1000
sg94
I0
sg36
I1000
sg90
I1500
sg58
I0
sg108
I2000
sg24
I2000
sg64
I19000
sg74
I2500
sg116
I1000
sg85
I0
sg19
I1000
sg41
I2000
sg123
I2500
sg127
I1500
sg100
I1000
ssg16
F4.8770971517752635e-05
sg7
F0.99995122902848221
sS'range_probabilities'
p139
(lp140
g8
(g10
S'\xae\x86 \xc0\xbc\xaf\xa7>'
tRp141
ag8
(g10
S'\xa9j\xa4/E\xc1\xa7>'
tRp142
ag8
(g10
S'-{E\xd4\r0\xae>'
tRp143
ag8
(g10
S'\x90\xa7<\xda\xd97\xb3>'
tRp144
ag8
(g10
S'o\x91\xfa\xa9\xabB\xae>'
tRp145
ag8
(g10
S"\t2'\x1b6\xbd\xc3>"
tRp146
ag8
(g10
S'\xb4r\xc8\xf4B?\xea>'
tRp147
ag8
(g10
S'\xa8\xce\x1c\t\xfej\xe0>'
tRp148
ag8
(g10
S'\xe2\xdc\x0er|\x18\xbf>'
tRp149
ag8
(g10
S'\x19\xd0V\x94\xf1>\xae>'
tRp150
ag8
(g10
S'\xdf \xeb\xbc\xc8\x1b\xc9>'
tRp151
ag8
(g10
S'\x8b\r<\x8e\xcb\xcf\x84?'
tRp152
ag8
(g10
S'\xcd`&\xd7\x8f\xa7\xef?'
tRp153
ag8
(g10
S'\x07\xb5\xa6\t!\x87C?'
tRp154
aF7.0931704805108968e-07
aF7.0931704805108968e-07
ag8
(g10
S'\xa9j\xa4/E\xc1\xa7>'
tRp155
ag8
(g10
S'\x84\xae\xbct\x93\xb5\xa7>'
tRp156
aF7.0931704805108968e-07
ag8
(g10
S'\xa9j\xa4/E\xc1\xa7>'
tRp157
ag8
(g10
S'\x1e_\xca\x99k\xbb\xa7>'
tRp158
asS'range_score'
p159
(dp160
g5
g8
(g10
S'\x91\xc354.U\xf4?'
tRp161
sg29
g8
(g10
S'1-\xeb\x95\xafW\xf4?'
tRp162
sg46
g8
(g10
S'\x8f _\xccOA\x8a@'
tRp163
sg53
g8
(g10
S'\xd7\n\xc2\xfe\x9aG5A'
tRp164
sg68
g8
(g10
S'\xfc\x9d\x14\x0f\x03\xa51@'
tRp165
sg78
g8
(g10
S'\x7fdf/?\xf0\xef?'
tRp166
sg94
F1
sg36
g8
(g10
S'\t\x91\xf6\xfd\xb8\xd6\xf9?'
tRp167
sg90
g8
(g10
S'$\xba\xd3\xafa\xe8\xef?'
tRp168
sg58
F1
sg108
g8
(g10
S'\x83%\x1a \x86\xe0\xef?'
tRp169
sg24
g8
(g10
S'40@\x17\x11\xe1\x10@'
tRp170
sg64
g8
(g10
S'\xd9\xdc\x95\xbe3\xfb\xcb@'
tRp171
sg74
g8
(g10
S'`6\x7f\x9c\xe8\x12&@'
tRp172
sg116
g8
(g10
S'\x7fdf/?\xf0\xef?'
tRp173
sg85
F1
sg19
g8
(g10
S'\xa3\xe1\xd4Jl\xe7\x04@'
tRp174
sg41
g8
(g10
S'\xa0\x8f\xe0q\x06\x8a\n@'
tRp175
sg123
g8
(g10
S'\xd7\x8a\xbf\x7f\xac\xd8\xef?'
tRp176
sg127
g8
(g10
S'\xb4\xca\xec\xc2+K\xf4?'
tRp177
sg100
g8
(g10
S'\x7fdf/?\xf0\xef?'
tRp178
ssS'ranges'
p179
(lp180
g123
ag116
ag127
ag36
ag29
ag41
ag68
ag74
ag19
ag5
ag24
ag64
ag53
ag46
ag58
ag94
ag100
ag108
ag85
ag78
ag90
asS'intervals'
p181
I10
sS'logfile'
p182
S'/mnt/hgfs/fuzz/crashers/jasper/ie.jpc/rangelog.txt'
p183
sb.