(ifuzztools.cfg_helper
ConfigHelper
p1
(dp2
S'max_seed'
p3
L10000000000L
sS'minimizecrashers'
p4
I1
sS'zzuf_log_out'
p5
S'/mnt/hgfs/fuzz/crashers/jasper/ie.jp2/results/zzuf_log.txt'
p6
sS'cfg'
p7
(iConfigParser
RawConfigParser
p8
(dp9
S'_defaults'
p10
(dp11
sS'_sections'
p12
(dp13
S'timeouts'
p14
(dp15
S'valgrindtimeout'
p16
S'30'
p17
sS'progtimeout'
p18
S'3'
sS'gdbtimeout'
p19
S'10'
p20
sS'zzuftimeout'
p21
S'1'
sS'killproctimeout'
p22
S'10'
p23
sS'__name__'
p24
g14
sS'watchdogtimeout'
p25
S'3600'
p26
ssS'zzuf'
p27
(dp28
g24
g27
sS'start_seed'
p29
S'0'
sS'seed_interval'
p30
S'500'
p31
sS'max_seed'
p32
S'10000000000'
p33
sS'copymode'
p34
S'0'
ssS'directories'
p35
(dp36
g24
g35
sS'scriptlocation'
p37
S'/mnt/hgfs/fuzz'
p38
sS'seedsdir'
p39
S'/mnt/hgfs/fuzz/seeds'
p40
sS'outputdir'
p41
S'/mnt/hgfs/fuzz/crashers'
p42
sS'localfuzzdir'
p43
S'/home/fuzz/fuzzing'
p44
ssS'target'
p45
(dp46
S'killprocname'
p47
S'jasper'
p48
sS'seedfile'
p49
S'ie.jp2'
p50
sS'postargs'
p51
S'-F /dev/null -T bmp'
p52
sS'program'
p53
S'/usr/local/bin/jasper'
p54
sg24
g45
sS'preargs'
p55
S'-f'
p56
ssS'verifier'
p57
(dp58
S'minimizecrashers'
p59
S'1'
sS'savefailedasserts'
p60
S'0'
sS'manualcutoff'
p61
S'10'
p62
sS'keepduplicates'
p63
S'0'
sg24
g57
sS'verifycrashers'
p64
S'1'
sS'backtracelevels'
p65
S'5'
sssS'_dict'
p66
c__builtin__
dict
p67
sbsS'lastseedfile'
p68
S'/mnt/hgfs/fuzz/crashers/jasper/ie.jp2/lastseed'
p69
sS'progtimeout'
p70
I3
sS'fullpathoriginal'
p71
S'/home/fuzz/fuzzing/jasper/ie.jp2/ie.jp2'
p72
sS'cmdline'
p73
S'/usr/local/bin/jasper -f ie.jp2 -F /dev/null -T bmp'
p74
sS'zzuftimeout'
p75
F1
sS'uniq_log'
p76
S'/mnt/hgfs/fuzz/crashers/jasper/ie.jp2/uniquelog.txt'
p77
sS'backtracelevels'
p78
I5
sS'crashexitcodesfile'
p79
S'/home/fuzz/fuzzing/jasper/ie.jp2/crashexitcodes'
p80
sS'fuzzrun_state_file'
p81
S'/mnt/hgfs/fuzz/crashers/fuzz_run.pkl'
p82
sS'results_dir'
p83
S'/mnt/hgfs/fuzz/crashers/jasper/ie.jp2/results'
p84
sS'copymode'
p85
I0
sS'seedfile'
p86
g50
sS'fullpathseedfile'
p87
S'/mnt/hgfs/fuzz/seeds/ie.jp2'
p88
sS'manualcutoff'
p89
I10
sS'outputdir'
p90
g42
sS'gdbtimeout'
p91
I10
sS'postargs'
p92
g52
sS'program'
p93
g54
sS'watchdogtimeout'
p94
I3600
sS'progargs'
p95
S'-f /home/fuzz/fuzzing/jasper/ie.jp2/ie.jp2 -F /dev/null -T bmp'
p96
sS'seed_interval'
p97
I500
sS'killprocname'
p98
g48
sS'localfuzzdir'
p99
g44
sS'seedsdir'
p100
g40
sS'fullpathcmdlinelist'
p101
(lp102
g54
ag56
aS'/home/fuzz/fuzzing/jasper/ie.jp2/ie.jp2'
p103
ag52
asS'killproctimeout'
p104
I10
sS'verifycrashers'
p105
I1
sS'fullpathcmdline'
p106
S'/usr/local/bin/jasper -f /home/fuzz/fuzzing/jasper/ie.jp2/ie.jp2 -F /dev/null -T bmp'
p107
sS'preargs'
p108
g56
sS'start_seed'
p109
I0
sS'watchdogfile'
p110
S'/tmp/fuzzing'
p111
sS'zzuf_log_file'
p112
S'/home/fuzz/fuzzing/jasper/ie.jp2/zzuf_log.txt'
p113
sS'killscript'
p114
S'killproc.sh'
p115
sS'valgrindtimeout'
p116
I30
sS'keepduplicates'
p117
I00
sS'fullpathlocalfuzzdir'
p118
S'/home/fuzz/fuzzing/jasper/ie.jp2'
p119
sS'fullpathoutputdir'
p120
S'/mnt/hgfs/fuzz/crashers/jasper/ie.jp2'
p121
sS'range_log'
p122
S'/mnt/hgfs/fuzz/crashers/jasper/ie.jp2/rangelog.txt'
p123
sb.(ifuzztools.seedrange
SeedRange
p1
(dp2
S'max_seed'
p3
L10000000000L
sS's2'
p4
I657508
sS's1'
p5
I657297
sS'interval'
p6
I500
sS'initial_seed'
p7
I0
sS'_s1_bookmark'
p8
I657290
sb.(ifuzztools.rangefinder
RangeFinder
p1
(dp2
S'neighbors'
p3
(dp4
(ifuzztools.rangefinder
Range
p5
(dp6
S'max'
p7
cnumpy.core.multiarray
scalar
p8
(cnumpy
dtype
p9
(S'f8'
I0
I1
tRp10
(I3
S'<'
NNNI-1
I-1
I0
tbS'\xb7\xb4._\xe5_\xa4?'
tRp11
sS'mean'
p12
g8
(g10
S'\xc4\xe9%\x9d\xbf{\xa0?'
tRp13
sS'span'
p14
g8
(g10
S'\x98WF\x10.!\x8f?'
tRp15
sS'min'
p16
g8
(g10
S'\xa2=:\xb63/\x99?'
tRp17
sb(lp18
(ifuzztools.rangefinder
Range
p19
(dp20
g7
g17
sg12
g8
(g10
S'\xb7\xb4._\xe5_\x94?'
tRp21
sg14
g8
(g10
S'\xac#.\\9=\x83?'
tRp22
sg16
g8
(g10
S'\x98WF\x10.!\x8f?'
tRp23
sba(ifuzztools.rangefinder
Range
p24
(dp25
g7
g8
(g10
S'\xc4\xe9%\x9d\xbf{\xb0?'
tRp26
sg12
g8
(g10
S' D\xbdL\xb2\xab\xaa?'
tRp27
sg14
g8
(g10
S'\xa2=:\xb63/\x99?'
tRp28
sg16
g11
sbasg24
(lp29
g5
a(ifuzztools.rangefinder
Range
p30
(dp31
g7
g8
(g10
S' D\xbdL\xb2\xab\xba?'
tRp32
sg12
g8
(g10
S'\xf2\x96\xf1\xf4\xb8\x93\xb5?'
tRp33
sg14
g8
(g10
S'\xb8\xb4._\xe5_\xa4?'
tRp34
sg16
g26
sbasg30
(lp35
g24
a(ifuzztools.rangefinder
Range
p36
(dp37
g7
g8
(g10
S'\xf2\x96\xf1\xf4\xb8\x93\xc5?'
tRp38
sg12
g8
(g10
S'\x81\x1c\xa8\r\xc9t\xc1?'
tRp39
sg14
g8
(g10
S'\xc4\xe9%\x9d\xbf{\xb0?'
tRp40
sg16
g32
sbasg36
(lp41
g30
a(ifuzztools.rangefinder
Range
p42
(dp43
g7
g8
(g10
S'\x81\x1c\xa8\r\xc9t\xd1?'
tRp44
sg12
g8
(g10
S'\xfa\xe7 \x88\xa5>\xcc?'
tRp45
sg14
g8
(g10
S' D\xbdL\xb2\xab\xba?'
tRp46
sg16
g38
sbasg42
(lp47
g36
a(ifuzztools.rangefinder
Range
p48
(dp49
g7
g8
(g10
S'\xfa\xe7 \x88\xa5>\xdc?'
tRp50
sg12
g8
(g10
S'>\x82\xe4J\xb7\xd9\xd6?'
tRp51
sg14
g8
(g10
S'\xf2\x96\xf1\xf4\xb8\x93\xc5?'
tRp52
sg16
g44
sbasg48
(lp53
g42
a(ifuzztools.rangefinder
Range
p54
(dp55
g7
g8
(g10
S'>\x82\xe4J\xb7\xd9\xe6?'
tRp56
sg12
g8
(g10
S'>\x82\xe4J\xb7\xd9\xe6?'
tRp57
sg14
g8
(g10
S'\x00\x00\x00\x00\x00\x00\x00\x00'
tRp58
sg16
g56
sbas(ifuzztools.rangefinder
Range
p59
(dp60
g7
g8
(g10
S'\xa1\x0c~\xdb\xd62 ?'
tRp61
sg12
g8
(g10
S'tY\xe3\x16\xba5\x1a?'
tRp62
sg14
g8
(g10
S':\xffb\x80\xce\xbf\x08?'
tRp63
sg16
g8
(g10
S'\xa5\x99\xcav\xc6\x05\x14?'
tRp64
sb(lp65
(ifuzztools.rangefinder
Range
p66
(dp67
g7
g64
sg12
g8
(g10
S'\xa1\x0c~\xdb\xd62\x10?'
tRp68
sg14
g8
(g10
S' hd\xda|\x97\xfe>'
tRp69
sg16
F4.7205438066465257e-05
sba(ifuzztools.rangefinder
Range
p70
(dp71
g7
g8
(g10
S'tY\xe3\x16\xba5*?'
tRp72
sg12
g8
(g10
S'\n\xb30yH4%?'
tRp73
sg14
g8
(g10
S'\xa6\x99\xcav\xc6\x05\x14?'
tRp74
sg16
g61
sbasg54
(lp75
g48
asg66
(lp76
g59
asg70
(lp77
g59
a(ifuzztools.rangefinder
Range
p78
(dp79
g7
g8
(g10
S'\x0b\xb30yH45?'
tRp80
sg12
g8
(g10
S"\xe2/Q\xc2\x92'1?"
tRp81
sg14
g8
(g10
S'\xa2\x0c~\xdb\xd62 ?'
tRp82
sg16
g72
sbasg78
(lp83
g70
a(ifuzztools.rangefinder
Range
p84
(dp85
g7
g8
(g10
S"\xe3/Q\xc2\x92'A?"
tRp86
sg12
g8
(g10
S'h\x89\xe9\xfe\xb6\xc1;?'
tRp87
sg14
g8
(g10
S'vY\xe3\x16\xba5*?'
tRp88
sg16
g80
sbasg84
(lp89
g78
a(ifuzztools.rangefinder
Range
p90
(dp91
g7
g8
(g10
S'i\x89\xe9\xfe\xb6\xc1K?'
tRp92
sg12
g8
(g10
S'\xa6\\\x9d\xe0\xa4tF?'
tRp93
sg14
g8
(g10
S'\x0c\xb30yH45?'
tRp94
sg16
g86
sbasg90
(lp95
g84
a(ifuzztools.rangefinder
Range
p96
(dp97
g7
g8
(g10
S'\xa6\\\x9d\xe0\xa4tV?'
tRp98
sg12
g8
(g10
S'\xad\x10\t0\xc0*R?'
tRp99
sg14
g8
(g10
S"\xe3/Q\xc2\x92'A?"
tRp100
sg16
g92
sbasg96
(lp101
g90
a(ifuzztools.rangefinder
Range
p102
(dp103
g7
g8
(g10
S'\xad\x10\t0\xc0*b?'
tRp104
sg12
g8
(g10
S'\x00\xbfW\xa0\x12e]?'
tRp105
sg14
g8
(g10
S'h\x89\xe9\xfe\xb6\xc1K?'
tRp106
sg16
g98
sbasg102
(lp107
g96
a(ifuzztools.rangefinder
Range
p108
(dp109
g7
g8
(g10
S'\x00\xbfW\xa0\x12em?'
tRp110
sg12
g8
(g10
S'\xd6g0h\xe9\xc7g?'
tRp111
sg14
g8
(g10
S'\xa6\\\x9d\xe0\xa4tV?'
tRp112
sg16
g104
sbasg108
(lp113
g102
a(ifuzztools.rangefinder
Range
p114
(dp115
g7
g8
(g10
S'\xd7g0h\xe9\xc7w?'
tRp116
sg12
g8
(g10
S'\xac#.\\9=s?'
tRp117
sg14
g8
(g10
S'\xae\x10\t0\xc0*b?'
tRp118
sg16
g110
sbasg114
(lp119
g108
a(ifuzztools.rangefinder
Range
p120
(dp121
g7
g8
(g10
S'\xac#.\\9=\x83?'
tRp122
sg12
g8
(g10
S'\x98WF\x10.!\x7f?'
tRp123
sg14
g8
(g10
S'\x02\xbfW\xa0\x12em?'
tRp124
sg16
g116
sbasg120
(lp125
g114
a(ifuzztools.rangefinder
Range
p126
(dp127
g7
g23
sg12
g8
(g10
S'\xa2=:\xb63/\x89?'
tRp128
sg14
g8
(g10
S'\xd8g0h\xe9\xc7w?'
tRp129
sg16
g122
sbasg126
(lp130
g120
ag19
asg19
(lp131
g126
ag5
assS'range_miss_counters'
p132
(dp133
g5
I2500
sg24
I4500
sg30
I2500
sg36
I3000
sg42
I2500
sg48
I3500
sg54
I3000
sg59
I3000
sg90
I59289
sg66
I2000
sg70
I2500
sg78
I2500
sg84
I6500
sg96
I101500
sg102
I102500
sg108
I59500
sg114
I25500
sg120
I6000
sg126
I1000
sg19
I3500
ssg16
F4.7205438066465257e-05
sg7
F0.99995279456193353
sS'range_probabilities'
p134
(lp135
g8
(g10
S';\xdaT<\x89\xb8i?'
tRp136
ag8
(g10
S'\xd9\xcf\xdf\xc5\xc6Sp?'
tRp137
ag8
(g10
S'Z\xa6y\x15\xcdWp?'
tRp138
ag8
(g10
S'Z\xa6y\x15\xcdWp?'
tRp139
ag8
(g10
S's\xce^:\xd8@z?'
tRp140
ag8
(g10
S'|\xd3\xa6\x00\xed\xbd\xba?'
tRp141
ag8
(g10
S'\xc8\xa9^h\xdf2\xe1?'
tRp142
ag8
(g10
S'5o\xb3F\xc6\xd9\xc8?'
tRp143
ag8
(g10
S'\x981S\xd4j\xf6\xb4?'
tRp144
ag8
(g10
S'\x8a\x8c\x95nT\x0e\xa1?'
tRp145
ag8
(g10
S'\xee-/T\xb0\xa8t?'
tRp146
ag8
(g10
S'\xce\x85vbjBd?'
tRp147
ag8
(g10
S'm\x1dX\x93\x84)d?'
tRp148
ag8
(g10
S'\xf2hPkv3d?'
tRp149
ag8
(g10
S'\xd5\xf1\xa8\xa0\x97\x1fd?'
tRp150
ag8
(g10
S'\xf2hPkv3d?'
tRp151
ag8
(g10
S'\xb2\x83\x84\xe2|.d?'
tRp152
ag8
(g10
S'\xf2hPkv3d?'
tRp153
ag8
(g10
S'm\x1dX\x93\x84)d?'
tRp154
ag8
(g10
S'\xb2\x83\x84\xe2|.d?'
tRp155
asS'range_score'
p156
(dp157
g5
g8
(g10
S'\xd7\x8a\xbf\x7f\xac\xd8\xef?'
tRp158
sg24
g8
(g10
S'!\xd4\x84NY\xb9\xef?'
tRp159
sg30
g8
(g10
S'\xd7\x8a\xbf\x7f\xac\xd8\xef?'
tRp160
sg36
g8
(g10
S'l\xecI\xce\xd4\xd0\xef?'
tRp161
sg42
g8
(g10
S'\xd7\x8a\xbf\x7f\xac\xd8\xef?'
tRp162
sg48
g8
(g10
S'\x99j?\x0b\xff\xc8\xef?'
tRp163
sg54
g8
(g10
S'l\xecI\xce\xd4\xd0\xef?'
tRp164
sg59
g8
(g10
S'\xaf\x17\x0b\x92N\xbd\xf9?'
tRp165
sg90
g8
(g10
S'\x1e\xca \xdb5\x14E@'
tRp166
sg66
g8
(g10
S'\x1d\x06{c,F\xf4?'
tRp167
sg70
g8
(g10
S'\xbe\x13\x12\xd4\xa6\xc3\xf9?'
tRp168
sg78
g8
(g10
S'\xbe\x13\x12\xd4\xa6\xc3\xf9?'
tRp169
sg84
g8
(g10
S'\x91h\x83\xe7\x9d\xb1\x04@'
tRp170
sg96
g8
(g10
S'z6\x82 \x03\x1dk@'
tRp171
sg102
g8
(g10
S'\x12\xd2\x89\xa4\x95\x96S@'
tRp172
sg108
g8
(g10
S'w_\xa4\xe4\x01\x86@@'
tRp173
sg114
g8
(g10
S'\r\x17eAg\xe3*@'
tRp174
sg120
g8
(g10
S'\xb1C\xdb)\xbdH\x00@'
tRp175
sg126
g8
(g10
S'\x7fdf/?\xf0\xef?'
tRp176
sg19
g8
(g10
S'\x99j?\x0b\xff\xc8\xef?'
tRp177
ssS'ranges'
p178
(lp179
g66
ag59
ag70
ag78
ag84
ag90
ag96
ag102
ag108
ag114
ag120
ag126
ag19
ag5
ag24
ag30
ag36
ag42
ag48
ag54
asS'intervals'
p180
I10
sS'logfile'
p181
S'/mnt/hgfs/fuzz/crashers/jasper/ie.jp2/rangelog.txt'
p182
sb.