(ifuzztools.cfg_helper
ConfigHelper
p1
(dp2
S'max_seed'
p3
L10000000000L
sS'minimizecrashers'
p4
I1
sS'zzuf_log_out'
p5
S'/mnt/hgfs/fuzz/crashers/jasper/ie.ras/results/zzuf_log.txt'
p6
sS'cfg'
p7
(iConfigParser
RawConfigParser
p8
(dp9
S'_defaults'
p10
(dp11
sS'_sections'
p12
(dp13
S'timeouts'
p14
(dp15
S'valgrindtimeout'
p16
S'30'
p17
sS'progtimeout'
p18
S'3'
sS'gdbtimeout'
p19
S'10'
p20
sS'zzuftimeout'
p21
S'1'
sS'killproctimeout'
p22
S'10'
p23
sS'__name__'
p24
g14
sS'watchdogtimeout'
p25
S'3600'
p26
ssS'zzuf'
p27
(dp28
g24
g27
sS'start_seed'
p29
S'0'
sS'seed_interval'
p30
S'500'
p31
sS'max_seed'
p32
S'10000000000'
p33
sS'copymode'
p34
S'0'
ssS'directories'
p35
(dp36
g24
g35
sS'scriptlocation'
p37
S'/mnt/hgfs/fuzz'
p38
sS'seedsdir'
p39
S'/mnt/hgfs/fuzz/seeds'
p40
sS'outputdir'
p41
S'/mnt/hgfs/fuzz/crashers'
p42
sS'localfuzzdir'
p43
S'/home/fuzz/fuzzing'
p44
ssS'target'
p45
(dp46
S'killprocname'
p47
S'jasper'
p48
sS'seedfile'
p49
S'ie.ras'
p50
sS'postargs'
p51
S'-F /dev/null -T bmp'
p52
sS'program'
p53
S'/usr/local/bin/jasper'
p54
sg24
g45
sS'preargs'
p55
S'-f'
p56
ssS'verifier'
p57
(dp58
S'minimizecrashers'
p59
S'1'
sS'savefailedasserts'
p60
S'0'
sS'manualcutoff'
p61
S'10'
p62
sS'keepduplicates'
p63
S'0'
sg24
g57
sS'verifycrashers'
p64
S'1'
sS'backtracelevels'
p65
S'5'
sssS'_dict'
p66
c__builtin__
dict
p67
sbsS'lastseedfile'
p68
S'/mnt/hgfs/fuzz/crashers/jasper/ie.ras/lastseed'
p69
sS'progtimeout'
p70
I3
sS'manualcutoff'
p71
I10
sS'cmdline'
p72
S'/usr/local/bin/jasper -f ie.ras -F /dev/null -T bmp'
p73
sS'backtracelevels'
p74
I5
sS'zzuftimeout'
p75
F1
sS'uniq_log'
p76
S'/mnt/hgfs/fuzz/crashers/jasper/ie.ras/uniquelog.txt'
p77
sS'outputdir'
p78
g42
sS'crashexitcodesfile'
p79
S'/home/fuzz/fuzzing/jasper/ie.ras/crashexitcodes'
p80
sS'fuzzrun_state_file'
p81
S'/mnt/hgfs/fuzz/crashers/fuzz_run.pkl'
p82
sS'copymode'
p83
I0
sS'seedfile'
p84
g50
sS'fullpathseedfile'
p85
S'/mnt/hgfs/fuzz/seeds/ie.ras'
p86
sS'results_dir'
p87
S'/mnt/hgfs/fuzz/crashers/jasper/ie.ras/results'
p88
sS'gdbtimeout'
p89
I10
sS'postargs'
p90
g52
sS'program'
p91
g54
sS'watchdogtimeout'
p92
I3600
sS'progargs'
p93
S'-f /home/fuzz/fuzzing/jasper/ie.ras/ie.ras -F /dev/null -T bmp'
p94
sS'seed_interval'
p95
I500
sS'killprocname'
p96
g48
sS'localfuzzdir'
p97
g44
sS'seedsdir'
p98
g40
sS'fullpathcmdlinelist'
p99
(lp100
g54
ag56
aS'/home/fuzz/fuzzing/jasper/ie.ras/ie.ras'
p101
ag52
asS'fullpathoriginal'
p102
S'/home/fuzz/fuzzing/jasper/ie.ras/ie.ras'
p103
sS'killproctimeout'
p104
I10
sS'verifycrashers'
p105
I1
sS'fullpathcmdline'
p106
S'/usr/local/bin/jasper -f /home/fuzz/fuzzing/jasper/ie.ras/ie.ras -F /dev/null -T bmp'
p107
sS'preargs'
p108
g56
sS'start_seed'
p109
I0
sS'watchdogfile'
p110
S'/tmp/fuzzing'
p111
sS'zzuf_log_file'
p112
S'/home/fuzz/fuzzing/jasper/ie.ras/zzuf_log.txt'
p113
sS'killscript'
p114
S'killproc.sh'
p115
sS'valgrindtimeout'
p116
I30
sS'keepduplicates'
p117
I00
sS'fullpathlocalfuzzdir'
p118
S'/home/fuzz/fuzzing/jasper/ie.ras'
p119
sS'fullpathoutputdir'
p120
S'/mnt/hgfs/fuzz/crashers/jasper/ie.ras'
p121
sS'range_log'
p122
S'/mnt/hgfs/fuzz/crashers/jasper/ie.ras/rangelog.txt'
p123
sb.(ifuzztools.seedrange
SeedRange
p1
(dp2
S'max_seed'
p3
L10000000000L
sS's2'
p4
I249040
sS's1'
p5
I248959
sS'interval'
p6
I500
sS'initial_seed'
p7
I0
sS'_s1_bookmark'
p8
I248794
sb.(ifuzztools.rangefinder
RangeFinder
p1
(dp2
S'neighbors'
p3
(dp4
(ifuzztools.rangefinder
Range
p5
(dp6
S'max'
p7
F0.99995972938144329
sS'mean'
p8
cnumpy.core.multiarray
scalar
p9
(cnumpy
dtype
p10
(S'f8'
I0
I1
tRp11
(I3
S'<'
NNNI-1
I-1
I0
tbS'\x97\xf3[\x08\x1d\xc5\xef?'
tRp12
sS'span'
p13
g9
(g11
S'\x80n0\xc2AG\x8d?'
tRp14
sS'min'
p15
g9
(g11
S'\xba\x92\xd7\x84\x8e\x8a\xef?'
tRp16
sb(lp17
(ifuzztools.rangefinder
Range
p18
(dp19
g7
g16
sg8
g9
(g11
S'&\xabe\x1ft\x84\xe9?'
tRp20
sg13
g9
(g11
S'R\x9e\xc7\x95i\x18\xd8?'
tRp21
sg15
g9
(g11
S'\x91\xc3\xf3\xb9Y~\xe3?'
tRp22
sbas(ifuzztools.rangefinder
Range
p23
(dp24
g7
g9
(g11
S' \xdeI\n\xc3\x14\x11?'
tRp25
sg8
g9
(g11
S'*Z\xbb\xffF\xa3\x0b?'
tRp26
sg13
g9
(g11
S'V\x88aS\xfc\x18\xfa>'
tRp27
sg15
F4.027061855670103e-05
sb(lp28
(ifuzztools.rangefinder
Range
p29
(dp30
g7
g9
(g11
S'+Z\xbb\xffF\xa3\x1b?'
tRp31
sg8
g9
(g11
S'&\x9c\x02\x05\x05\\\x16?'
tRp32
sg13
g9
(g11
S'\x16\xf8\xe2\xea\x07\x1d\x05?'
tRp33
sg15
g25
sbas(ifuzztools.rangefinder
Range
p34
(dp35
g7
g9
(g11
S'&\x9c\x02\x05\x05\\&?'
tRp36
sg8
g9
(g11
S'\x9e$pB\xd4\x16"?'
tRp37
sg13
g9
(g11
S'!\xdeI\n\xc3\x14\x11?'
tRp38
sg15
g31
sb(lp39
g29
a(ifuzztools.rangefinder
Range
p40
(dp41
g7
g9
(g11
S'\x9e$pB\xd4\x162?'
tRp42
sg8
g9
(g11
S'\xb1r\xf1\xc4\xd6D-?'
tRp43
sg13
g9
(g11
S',Z\xbb\xffF\xa3\x1b?'
tRp44
sg15
g36
sbas(ifuzztools.rangefinder
Range
p45
(dp46
g7
g9
(g11
S'Q\x9e\xc7\x95i\x18\xd8?'
tRp47
sg8
g9
(g11
S'\x91\xc3\xf3\xb9Y~\xd3?'
tRp48
sg13
g9
(g11
S'\x01kOo?h\xc2?'
tRp49
sg15
g9
(g11
S'\xa1\xd1?\xbc\x93\xc8\xcd?'
tRp50
sb(lp51
(ifuzztools.rangefinder
Range
p52
(dp53
g7
g50
sg8
g9
(g11
S'P\x9e\xc7\x95i\x18\xc8?'
tRp54
sg13
g9
(g11
S'B\xcd\xe0\x99\xa8\xc0\xb6?'
tRp55
sg15
g9
(g11
S'\x00kOo?h\xc2?'
tRp56
sba(ifuzztools.rangefinder
Range
p57
(dp58
g7
g22
sg8
g9
(g11
S'\xba\x92\xd7\x84\x8e\x8a\xdf?'
tRp59
sg13
g9
(g11
S'\xa2\xd1?\xbc\x93\xc8\xcd?'
tRp60
sg15
g47
sbasg29
(lp61
g23
ag34
asg40
(lp62
g34
a(ifuzztools.rangefinder
Range
p63
(dp64
g7
g9
(g11
S'\xb1r\xf1\xc4\xd6D=?'
tRp65
sg8
g9
(g11
S'\xa8\xcb\xb0\x83\xd5\xad7?'
tRp66
sg13
g9
(g11
S'&\x9c\x02\x05\x05\\&?'
tRp67
sg15
g42
sbas(ifuzztools.rangefinder
Range
p68
(dp69
g7
g9
(g11
S'\xcc\xc4;\xb7\x8dIt?'
tRp70
sg8
g9
(g11
S'\xc1\x1f\x9eP\xacip?'
tRp71
sg13
g9
(g11
S'X(\xed4\x0b\xff^?'
tRp72
sg15
g9
(g11
S'l\xf5\x00\xd4\x95\x13i?'
tRp73
sb(lp74
(ifuzztools.rangefinder
Range
p75
(dp76
g7
g73
sg8
g9
(g11
S'\xcc\xc4;\xb7\x8dId?'
tRp77
sg13
g9
(g11
S'\x82\xc2\x14s (S?'
tRp78
sg15
g9
(g11
S'V(\xed4\x0b\xff^?'
tRp79
sba(ifuzztools.rangefinder
Range
p80
(dp81
g7
g9
(g11
S'\xc1\x1f\x9eP\xaci\x80?'
tRp82
sg8
g9
(g11
S"'\x02<,s\x8ez?"
tRp83
sg13
g9
(g11
S'l\xf5\x00\xd4\x95\x13i?'
tRp84
sg15
g70
sbasg80
(lp85
g68
a(ifuzztools.rangefinder
Range
p86
(dp87
g7
g9
(g11
S"'\x02<,s\x8e\x8a?"
tRp88
sg8
g9
(g11
S'\xf4\x10m\xbe\x0f|\x85?'
tRp89
sg13
g9
(g11
S'\xcc\xc4;\xb7\x8dIt?'
tRp90
sg15
g82
sbas(ifuzztools.rangefinder
Range
p91
(dp92
g7
g56
sg8
g9
(g11
S'\xa0\xd1?\xbc\x93\xc8\xbd?'
tRp93
sg13
g9
(g11
S'~\x11|\x89\xac\x1f\xac?'
tRp94
sg15
g9
(g11
S'A\xcd\xe0\x99\xa8\xc0\xb6?'
tRp95
sb(lp96
(ifuzztools.rangefinder
Range
p97
(dp98
g7
g95
sg8
g9
(g11
S'\x00kOo?h\xb2?'
tRp99
sg13
g9
(g11
S'\x04\x89E\xaa\xa4a\xa1?'
tRp100
sg15
g9
(g11
S'~\x11|\x89\xac\x1f\xac?'
tRp101
sbag52
asg86
(lp102
g80
a(ifuzztools.rangefinder
Range
p103
(dp104
g7
g9
(g11
S'\xf4\x10m\xbe\x0f|\x95?'
tRp105
sg8
g9
(g11
S'\x04\x89E\xaa\xa4a\x91?'
tRp106
sg13
g9
(g11
S'\xc1\x1f\x9eP\xaci\x80?'
tRp107
sg15
g88
sbasg52
(lp108
g91
ag45
asg57
(lp109
g45
ag18
as(ifuzztools.rangefinder
Range
p110
(dp111
g7
g79
sg8
g9
(g11
S'l\xf5\x00\xd4\x95\x13Y?'
tRp112
sg13
g9
(g11
S'\xaa\xcb\xb0\x83\xd5\xadG?'
tRp113
sg15
g9
(g11
S'\x81\xc2\x14s (S?'
tRp114
sb(lp115
(ifuzztools.rangefinder
Range
p116
(dp117
g7
g114
sg8
g9
(g11
S'U(\xed4\x0b\xffN?'
tRp118
sg13
g9
(g11
S'\xb4r\xf1\xc4\xd6D=?'
tRp119
sg15
g9
(g11
S'\xa8\xcb\xb0\x83\xd5\xadG?'
tRp120
sbag75
as(ifuzztools.rangefinder
Range
p121
(dp122
g7
g101
sg8
g9
(g11
S'A\xcd\xe0\x99\xa8\xc0\xa6?'
tRp123
sg13
g9
(g11
S'\xf4\x10m\xbe\x0f|\x95?'
tRp124
sg15
g9
(g11
S'\x04\x89E\xaa\xa4a\xa1?'
tRp125
sb(lp126
(ifuzztools.rangefinder
Range
p127
(dp128
g7
g125
sg8
g9
(g11
S'~\x11|\x89\xac\x1f\x9c?'
tRp129
sg13
g9
(g11
S'(\x02<,s\x8e\x8a?'
tRp130
sg15
g105
sbag97
asg63
(lp131
g40
a(ifuzztools.rangefinder
Range
p132
(dp133
g7
g120
sg8
g9
(g11
S'\x80\xc2\x14s (C?'
tRp134
sg13
g9
(g11
S'\x9f$pB\xd4\x162?'
tRp135
sg15
g65
sbasg132
(lp136
g63
ag116
asg127
(lp137
g103
ag121
asg116
(lp138
g132
ag110
asg103
(lp139
g86
ag127
asg97
(lp140
g121
ag91
asg75
(lp141
g110
ag68
asg18
(lp142
g57
ag5
assS'range_miss_counters'
p143
(dp144
g5
I52500
sg23
I44500
sg34
I44000
sg45
I42000
sg29
I46000
sg40
I49000
sg68
I49919
sg80
I50000
sg91
I49000
sg86
I47000
sg52
I37000
sg57
I44000
sg110
I45500
sg121
I48000
sg63
I52000
sg132
I-712214
sg127
I43395
sg116
I47500
sg103
I45500
sg97
I43000
sg75
I39500
sg18
I41500
ssg15
F4.027061855670103e-05
sg7
F0.99995972938144329
sS'range_probabilities'
p145
(lp146
g9
(g11
S"\x92\xcc\xecp'5\xa6?"
tRp147
ag9
(g11
S"9J\x95\xdf}'\xa6?"
tRp148
ag9
(g11
S'\xf5\x8a\x82\xd3\xa0:\xa6?'
tRp149
ag9
(g11
S'\x9b;9\xf7\xd5\x06\xa6?'
tRp150
ag9
(g11
S'Pl\xf9\xb2\xfa\xd7\xab?'
tRp151
ag9
(g11
S',\xd3\r\x9fYT\xb1?'
tRp152
ag9
(g11
S'\xa4\x0bz\x1a\xfd\x15\xac?'
tRp153
ag9
(g11
S'\xbf]\x05\xe4\xf3,\xa6?'
tRp154
ag9
(g11
S'>\x82\x8f+"l\xa6?'
tRp155
ag9
(g11
S'\xdb\xaf\xbd{\x1f\x04\xa6?'
tRp156
ag9
(g11
S"'M\xba\xe4H\xf9\xa5?"
tRp157
ag9
(g11
S'\xb1\x85\xfb\xb5\xdc\x19\xa6?'
tRp158
ag9
(g11
S'\xbf]\x05\xe4\xf3,\xa6?'
tRp159
ag9
(g11
S'\x1a\xe4\x14O\xd4M\xa6?'
tRp160
ag9
(g11
S'9\xc2Gk\xfb\x0e\xa6?'
tRp161
ag9
(g11
S'\x8c-U\xa5\x97E\xa6?'
tRp162
ag9
(g11
S'\xdb\xaf\xbd{\x1f\x04\xa6?'
tRp163
ag9
(g11
S'#\x8e\xb0~\xd2\x87\xa6?'
tRp164
ag9
(g11
S'P\x17\x94\xdf\x93P\xa6?'
tRp165
ag9
(g11
S'\xf5\x8a\x82\xd3\xa0:\xa6?'
tRp166
ag9
(g11
S'u}\xb1\x04\x14V\xa6?'
tRp167
ag9
(g11
S'=\x12=\xbdG\xde\xa5?'
tRp168
asS'range_score'
p169
(dp170
g5
g9
(g11
S'\xeb\xa2\xff\xaf\x9d\xec\xec?'
tRp171
sg23
g9
(g11
S'U\xff\xf4:\x85_\xed?'
tRp172
sg34
g9
(g11
S';\xdd\xf3\xc8\xc2f\xed?'
tRp173
sg45
g9
(g11
S'r\xc6T\xde\xca\x83\xed?'
tRp174
sg29
g9
(g11
S'\xf2\x1c\x05$sM\xed?'
tRp175
sg40
g9
(g11
S'M*P\xd5A"\xed?'
tRp176
sg68
g9
(g11
S'3}\x17E\xab\x1e\xed?'
tRp177
sg80
g9
(g11
S'>Z\xf8nU\x10\xed?'
tRp178
sg91
g9
(g11
S'3}\x17E\xab\x1e\xed?'
tRp179
sg86
g9
(g11
S'QT\x1a+l;\xed?'
tRp180
sg52
g9
(g11
S'_\xa8\x16\xbc\xdc\xcc\xed?'
tRp181
sg57
g9
(g11
S';\xdd\xf3\xc8\xc2f\xed?'
tRp182
sg110
g9
(g11
S'\xb4W\xb0=\xacT\xed?'
tRp183
sg121
g9
(g11
S'\x19\x8cN-\x08-\xed?'
tRp184
sg63
g9
(g11
S'\xe7\xb4\rq\xf1i\xf2?'
tRp185
sg132
g9
(g11
S'\xcan\x14O\xc7\xeb\xf6?'
tRp186
sg127
g9
(g11
S'\xa6\x9a\xe8J(\x80\xed?'
tRp187
sg116
g9
(g11
S'p\x1d`\xa7\xf3\x92\xf2?'
tRp188
sg103
g9
(g11
S'\xb4W\xb0=\xacT\xed?'
tRp189
sg97
g9
(g11
S'\x84\x04\x15@Cu\xed?'
tRp190
sg75
g9
(g11
S'"kEL=\xa8\xed?'
tRp191
sg18
g9
(g11
S'\xdbM:]\x11\x8b\xed?'
tRp192
ssS'ranges'
p193
(lp194
g23
ag29
ag34
ag40
ag63
ag132
ag116
ag110
ag75
ag68
ag80
ag86
ag103
ag127
ag121
ag97
ag91
ag52
ag45
ag57
ag18
ag5
asS'intervals'
p195
I10
sS'logfile'
p196
S'/mnt/hgfs/fuzz/crashers/jasper/ie.ras/rangelog.txt'
p197
sb.