(ifuzztools.cfg_helper
ConfigHelper
p1
(dp2
S'max_seed'
p3
L10000000000L
sS'minimizecrashers'
p4
I1
sS'zzuf_log_out'
p5
S'/mnt/hgfs/fuzz/crashers/jasper/ie.bmp/results/zzuf_log.txt'
p6
sS'cfg'
p7
(iConfigParser
RawConfigParser
p8
(dp9
S'_defaults'
p10
(dp11
sS'_sections'
p12
(dp13
S'timeouts'
p14
(dp15
S'valgrindtimeout'
p16
S'30'
p17
sS'progtimeout'
p18
S'3'
sS'gdbtimeout'
p19
S'10'
p20
sS'zzuftimeout'
p21
S'1'
sS'killproctimeout'
p22
S'10'
p23
sS'__name__'
p24
g14
sS'watchdogtimeout'
p25
S'3600'
p26
ssS'zzuf'
p27
(dp28
g24
g27
sS'start_seed'
p29
S'0'
sS'seed_interval'
p30
S'500'
p31
sS'max_seed'
p32
S'10000000000'
p33
sS'copymode'
p34
S'0'
ssS'directories'
p35
(dp36
g24
g35
sS'scriptlocation'
p37
S'/mnt/hgfs/fuzz'
p38
sS'seedsdir'
p39
S'/mnt/hgfs/fuzz/seeds'
p40
sS'outputdir'
p41
S'/mnt/hgfs/fuzz/crashers'
p42
sS'localfuzzdir'
p43
S'/home/fuzz/fuzzing'
p44
ssS'target'
p45
(dp46
S'killprocname'
p47
S'jasper'
p48
sS'seedfile'
p49
S'ie.bmp'
p50
sS'postargs'
p51
S'-F /dev/null -T jp2'
p52
sS'program'
p53
S'/usr/local/bin/jasper'
p54
sg24
g45
sS'preargs'
p55
S'-f'
p56
ssS'verifier'
p57
(dp58
S'minimizecrashers'
p59
S'1'
sS'savefailedasserts'
p60
S'0'
sS'manualcutoff'
p61
S'10'
p62
sS'keepduplicates'
p63
S'0'
sg24
g57
sS'verifycrashers'
p64
S'1'
sS'backtracelevels'
p65
S'5'
sssS'_dict'
p66
c__builtin__
dict
p67
sbsS'lastseedfile'
p68
S'/mnt/hgfs/fuzz/crashers/jasper/ie.bmp/lastseed'
p69
sS'progtimeout'
p70
I3
sS'fullpathoriginal'
p71
S'/home/fuzz/fuzzing/jasper/ie.bmp/ie.bmp'
p72
sS'cmdline'
p73
S'/usr/local/bin/jasper -f ie.bmp -F /dev/null -T jp2'
p74
sS'zzuftimeout'
p75
F1
sS'uniq_log'
p76
S'/mnt/hgfs/fuzz/crashers/jasper/ie.bmp/uniquelog.txt'
p77
sS'backtracelevels'
p78
I5
sS'crashexitcodesfile'
p79
S'/home/fuzz/fuzzing/jasper/ie.bmp/crashexitcodes'
p80
sS'fuzzrun_state_file'
p81
S'/mnt/hgfs/fuzz/crashers/fuzz_run.pkl'
p82
sS'results_dir'
p83
S'/mnt/hgfs/fuzz/crashers/jasper/ie.bmp/results'
p84
sS'copymode'
p85
I0
sS'seedfile'
p86
g50
sS'fullpathseedfile'
p87
S'/mnt/hgfs/fuzz/seeds/ie.bmp'
p88
sS'manualcutoff'
p89
I10
sS'outputdir'
p90
g42
sS'gdbtimeout'
p91
I10
sS'postargs'
p92
g52
sS'program'
p93
g54
sS'watchdogtimeout'
p94
I3600
sS'progargs'
p95
S'-f /home/fuzz/fuzzing/jasper/ie.bmp/ie.bmp -F /dev/null -T jp2'
p96
sS'seed_interval'
p97
I500
sS'killprocname'
p98
g48
sS'localfuzzdir'
p99
g44
sS'seedsdir'
p100
g40
sS'fullpathcmdlinelist'
p101
(lp102
g54
ag56
aS'/home/fuzz/fuzzing/jasper/ie.bmp/ie.bmp'
p103
ag52
asS'killproctimeout'
p104
I10
sS'verifycrashers'
p105
I1
sS'fullpathcmdline'
p106
S'/usr/local/bin/jasper -f /home/fuzz/fuzzing/jasper/ie.bmp/ie.bmp -F /dev/null -T jp2'
p107
sS'preargs'
p108
g56
sS'start_seed'
p109
I0
sS'watchdogfile'
p110
S'/tmp/fuzzing'
p111
sS'zzuf_log_file'
p112
S'/home/fuzz/fuzzing/jasper/ie.bmp/zzuf_log.txt'
p113
sS'killscript'
p114
S'killproc.sh'
p115
sS'valgrindtimeout'
p116
I30
sS'keepduplicates'
p117
I00
sS'fullpathlocalfuzzdir'
p118
S'/home/fuzz/fuzzing/jasper/ie.bmp'
p119
sS'fullpathoutputdir'
p120
S'/mnt/hgfs/fuzz/crashers/jasper/ie.bmp'
p121
sS'range_log'
p122
S'/mnt/hgfs/fuzz/crashers/jasper/ie.bmp/rangelog.txt'
p123
sb.(ifuzztools.seedrange
SeedRange
p1
(dp2
S'max_seed'
p3
L10000000000L
sS's2'
p4
I843652
sS's1'
p5
I843564
sS'interval'
p6
I500
sS'initial_seed'
p7
I0
sS'_s1_bookmark'
p8
I843437
sb.(ifuzztools.rangefinder
RangeFinder
p1
(dp2
S'neighbors'
p3
(dp4
(ifuzztools.rangefinder
Range
p5
(dp6
S'max'
p7
cnumpy.core.multiarray
scalar
p8
(cnumpy
dtype
p9
(S'f8'
I0
I1
tRp10
(I3
S'<'
NNNI-1
I-1
I0
tbS'\xea\x8e\x93\xe2\xbaQ\xef?'
tRp11
sS'mean'
p12
g8
(g10
S'P#\xf2\xd6zV\xe9?'
tRp13
sS'span'
p14
g8
(g10
S'h\xae\x85.\x00\xed\xd7?'
tRp15
sS'min'
p16
g8
(g10
S'\xb6\xb7P\xcb:[\xe3?'
tRp17
sb(lp18
(ifuzztools.rangefinder
Range
p19
(dp20
g7
g17
sg12
g8
(g10
S'\xea\x8e\x93\xe2\xbaQ\xdf?'
tRp21
sg14
g8
(g10
S'\n\x827\xd0\xea\x92\xcd?'
tRp22
sg16
g8
(g10
S'g\xae\x85.\x00\xed\xd7?'
tRp23
sba(ifuzztools.rangefinder
Range
p24
(dp25
g7
F0.9999600127959053
sg12
g8
(g10
S'\xa0\tN\x83\xb3\xa8\xef?'
tRp26
sg14
g8
(g10
S'\xa0\xad\x9e.(\xbe\x95?'
tRp27
sg16
g11
sbas(ifuzztools.rangefinder
Range
p28
(dp29
g7
g23
sg12
g8
(g10
S'\xb6\xb7P\xcb:[\xd3?'
tRp30
sg14
g8
(g10
S'\xc6\xda\xd3\x8c\x15G\xc2?'
tRp31
sg16
g8
(g10
S'\x08\x827\xd0\xea\x92\xcd?'
tRp32
sb(lp33
(ifuzztools.rangefinder
Range
p34
(dp35
g7
g32
sg12
g8
(g10
S'g\xae\x85.\x00\xed\xc7?'
tRp36
sg14
g8
(g10
S'\x84N\xc7\x86\xaa\x97\xb6?'
tRp37
sg16
g8
(g10
S'\xc6\xda\xd3\x8c\x15G\xc2?'
tRp38
sbag19
as(ifuzztools.rangefinder
Range
p39
(dp40
g7
g8
(g10
S'\x84N\xc7\x86\xaa\x97\xb6?'
tRp41
sg12
g8
(g10
S'\xc6\xda\xd3\x8c\x15G\xb2?'
tRp42
sg14
g8
(g10
S'\xfa\xce\xcd\xe7SB\xa1?'
tRp43
sg16
g8
(g10
S'\x0e\xce\xc0%\x01\xed\xab?'
tRp44
sb(lp45
(ifuzztools.rangefinder
Range
p46
(dp47
g7
g44
sg12
g8
(g10
S'\x84N\xc7\x86\xaa\x97\xa6?'
tRp48
sg14
g8
(g10
S'*\xfe\xe5{ZU\x95?'
tRp49
sg16
g8
(g10
S'\xf9\xce\xcd\xe7SB\xa1?'
tRp50
sba(ifuzztools.rangefinder
Range
p51
(dp52
g7
g38
sg12
g8
(g10
S'\x08\x827\xd0\xea\x92\xbd?'
tRp53
sg14
g8
(g10
S'\x10\xce\xc0%\x01\xed\xab?'
tRp54
sg16
g41
sbasg51
(lp55
g39
ag34
as(ifuzztools.rangefinder
Range
p56
(dp57
g7
g8
(g10
S'\xd6d\xf1\xba{q\x1b?'
tRp58
sg12
g8
(g10
S'\xfe\xd66C\xbc3\x16?'
tRp59
sg14
g8
(g10
S'^7\xea\xde\xfd\xf6\x04?'
tRp60
sg16
g8
(g10
S"'I|\xcb\xfc\xf5\x10?"
tRp61
sb(lp62
(ifuzztools.rangefinder
Range
p63
(dp64
g7
g61
sg12
g8
(g10
S'\xd5d\xf1\xba{q\x0b?'
tRp65
sg14
g8
(g10
S'\xe4\xb5\x1cp\xf7\xe9\xf9>'
tRp66
sg16
F3.9987204094689698e-05
sba(ifuzztools.rangefinder
Range
p67
(dp68
g7
g8
(g10
S'\xff\xd66C\xbc3&?'
tRp69
sg12
g8
(g10
S'\xb5\xc4W\x10=\xf6!?'
tRp70
sg14
g8
(g10
S'(I|\xcb\xfc\xf5\x10?'
tRp71
sg16
g58
sbas(ifuzztools.rangefinder
Range
p72
(dp73
g7
g8
(g10
S'\xb5\xc4W\x10=\xf61?'
tRp74
sg12
g8
(g10
S'40\xf31\x1b\x10-?'
tRp75
sg14
g8
(g10
S'\xd6d\xf1\xba{q\x1b?'
tRp76
sg16
g69
sb(lp77
g67
a(ifuzztools.rangefinder
Range
p78
(dp79
g7
g8
(g10
S'50\xf31\x1b\x10=?'
tRp80
sg12
g8
(g10
S'uz%!,\x837?'
tRp81
sg14
g8
(g10
S'\x00\xd76C\xbc3&?'
tRp82
sg16
g74
sbas(ifuzztools.rangefinder
Range
p83
(dp84
g7
g8
(g10
S'uz%!,\x83G?'
tRp85
sg12
g8
(g10
S'H\x89\x0f\xdd\x9c\x05C?'
tRp86
sg14
g8
(g10
S'\xb5\xc4W\x10=\xf61?'
tRp87
sg16
g80
sb(lp88
g78
a(ifuzztools.rangefinder
Range
p89
(dp90
g7
g8
(g10
S'H\x89\x0f\xdd\x9c\x05S?'
tRp91
sg12
g8
(g10
S'\x82F\xa2\xed2\xc7N?'
tRp92
sg14
g8
(g10
S'60\xf31\x1b\x10=?'
tRp93
sg16
g85
sbas(ifuzztools.rangefinder
Range
p94
(dp95
g7
g8
(g10
S'\x83F\xa2\xed2\xc7^?'
tRp96
sg12
g8
(g10
S'\xe6\xe7X\xe5g\xe6X?'
tRp97
sg14
g8
(g10
S'vz%!,\x83G?'
tRp98
sg16
g91
sb(lp99
g89
a(ifuzztools.rangefinder
Range
p100
(dp101
g7
g8
(g10
S'\xe6\xe7X\xe5g\xe6h?'
tRp102
sg12
g8
(g10
S'\x94\x05\x15\xae\x00%d?'
tRp103
sg14
g8
(g10
S'I\x89\x0f\xdd\x9c\x05S?'
tRp104
sg16
g96
sbas(ifuzztools.rangefinder
Range
p105
(dp106
g7
g8
(g10
S'\x94\x05\x15\xae\x00%t?'
tRp107
sg12
g8
(g10
S'\xc4\xbc`P\x1aLp?'
tRp108
sg14
g8
(g10
S'\x84F\xa2\xed2\xc7^?'
tRp109
sg16
g102
sb(lp110
g100
a(ifuzztools.rangefinder
Range
p111
(dp112
g7
g8
(g10
S'\xc4\xbc`P\x1aL\x80?'
tRp113
sg12
g8
(g10
S'\x8e?k\xa7\x9a^z?'
tRp114
sg14
g8
(g10
S'\xe8\xe7X\xe5g\xe6h?'
tRp115
sg16
g107
sbas(ifuzztools.rangefinder
Range
p116
(dp117
g7
g8
(g10
S'\x8f?k\xa7\x9a^\x8a?'
tRp118
sg12
g8
(g10
S'*\xfe\xe5{ZU\x85?'
tRp119
sg14
g8
(g10
S'\x96\x05\x15\xae\x00%t?'
tRp120
sg16
g113
sb(lp121
g111
a(ifuzztools.rangefinder
Range
p122
(dp123
g7
g8
(g10
S'*\xfe\xe5{ZU\x95?'
tRp124
sg12
g8
(g10
S'\xf9\xce\xcd\xe7SB\x91?'
tRp125
sg14
g8
(g10
S'\xc5\xbc`P\x1aL\x80?'
tRp126
sg16
g118
sbasg19
(lp127
g28
ag5
asg24
(lp128
g5
asg34
(lp129
g51
ag28
as(ifuzztools.rangefinder
Range
p130
(dp131
g7
g50
sg12
g8
(g10
S'\x0e\xce\xc0%\x01\xed\x9b?'
tRp132
sg14
g8
(g10
S'\x90?k\xa7\x9a^\x8a?'
tRp133
sg16
g124
sb(lp134
g122
ag46
asg46
(lp135
g130
ag39
asg63
(lp136
g56
asg67
(lp137
g56
ag72
asg78
(lp138
g72
ag83
asg89
(lp139
g83
ag94
asg100
(lp140
g94
ag105
asg111
(lp141
g105
ag116
asg122
(lp142
g116
ag130
assS'range_miss_counters'
p143
(dp144
g5
I34000
sg28
I40500
sg39
I30000
sg51
I33000
sg56
I29000
sg72
I41000
sg83
I40500
sg94
I45500
sg105
I41000
sg116
I43000
sg19
I34000
sg24
I34500
sg34
I34000
sg130
I26500
sg46
I30000
sg63
I34500
sg67
I37500
sg78
I49000
sg89
I47912
sg100
I46500
sg111
I55000
sg122
I35500
ssg16
F3.9987204094689698e-05
sg7
F0.9999600127959053
sS'range_probabilities'
p145
(lp146
g8
(g10
S'\x95s\x1f\xda\xa7D\xa4?'
tRp147
ag8
(g10
S'\xa1\x90\xa4\xc4\xe0{\xa4?'
tRp148
ag8
(g10
S'b\x14\xd9\xa7\xc7&\xa4?'
tRp149
ag8
(g10
S'\xe7\xd7\x08r\x02v\xa9?'
tRp150
ag8
(g10
S'RO\xa5\xa7E\xe8\xaf?'
tRp151
ag8
(g10
S'\x7f\x1c\xdf\x0cm\x7f\xa9?'
tRp152
ag8
(g10
S'\xe1\x03E\xd5\x10(\xa9?'
tRp153
ag8
(g10
S'\xf7\xaf\xdc]\xbe\x0f\xb0?'
tRp154
ag8
(g10
S'\xb7\x1eGMy4\xa9?'
tRp155
ag8
(g10
S'\xd64\xdf[\x91\x82\xa9?'
tRp156
ag8
(g10
S'e\xd8&\x04\xee\x9d\xaf?'
tRp157
ag8
(g10
S'\xcb\x82C7\x17`\xa9?'
tRp158
ag8
(g10
S'\x1b\xc9k\x15\xaa?\xa4?'
tRp159
ag8
(g10
S'\x10\xbe\xa2 ?\x9a\xa4?'
tRp160
ag8
(g10
S'\xcf>|F\xcbq\xa4?'
tRp161
ag8
(g10
S'v\xd0\xc9.Pt\xa4?'
tRp162
ag8
(g10
S'\xa1\xfe@\x8b\xa8S\xa4?'
tRp163
ag8
(g10
S'U\x1a\xcb\xd9\xa6I\xa4?'
tRp164
ag8
(g10
S'c90\x7f\x13\t\xa4?'
tRp165
ag8
(g10
S'U\x1a\xcb\xd9\xa6I\xa4?'
tRp166
ag8
(g10
S'U\x1a\xcb\xd9\xa6I\xa4?'
tRp167
ag8
(g10
S'\x95s\x1f\xda\xa7D\xa4?'
tRp168
asS'range_score'
p169
(dp170
g5
g8
(g10
S'/\xa1k\xf9\n\xf9\xed?'
tRp171
sg28
g8
(g10
S'\x04\xf6\xc5\xbc\xa3\x99\xed?'
tRp172
sg39
g8
(g10
S'\xf6\xd1\x19\x07\x128\xee?'
tRp173
sg51
g8
(g10
S'\xcc"S\x97\xd3\x07\xee?'
tRp174
sg56
g8
(g10
S'q\xbf\x03\x1e?C\xee?'
tRp175
sg72
g8
(g10
S'c\xec\x0f.\xd1\xce\xf2?'
tRp176
sg83
g8
(g10
S'J\x00U\xe1\xc5\xd5\xf2?'
tRp177
sg94
g8
(g10
S'\xf6N\x85\xd7\xa4\xba\xf7?'
tRp178
sg105
g8
(g10
S'}P\xb9\x04\x18\xd8\xf2?'
tRp179
sg116
g8
(g10
S'7\x1842\xa0\xbe\xf2?'
tRp180
sg19
g8
(g10
S'/\xa1k\xf9\n\xf9\xed?'
tRp181
sg24
g8
(g10
S'\x95\x86\\e\xa9\xf1\xed?'
tRp182
sg34
g8
(g10
S'/\xa1k\xf9\n\xf9\xed?'
tRp183
sg130
g8
(g10
S'\xdc\xfaY\xde\x1cp\xee?'
tRp184
sg46
g8
(g10
S'\xc0\x9a\xac?Y4\xee?'
tRp185
sg63
g8
(g10
S'\x95\x86\\e\xa9\xf1\xed?'
tRp186
sg67
g8
(g10
S'R\x9aO\t\x86\xc5\xed?'
tRp187
sg78
g8
(g10
S'D\xea\xb4V\xdb\x91\xf7?'
tRp188
sg89
g8
(g10
S'S\xb5\xf0\x8e=\x95\xf2?'
tRp189
sg100
g8
(g10
S'\xe9y\x7f\xffg\x9e\xf2?'
tRp190
sg111
g8
(g10
S'\xa8\x05!\xc6\xf0Z\xf7?'
tRp191
sg122
g8
(g10
S'~6\xa2\xa2I\xea\xed?'
tRp192
ssS'ranges'
p193
(lp194
g63
ag56
ag67
ag72
ag78
ag83
ag89
ag94
ag100
ag105
ag111
ag116
ag122
ag130
ag46
ag39
ag51
ag34
ag28
ag19
ag5
ag24
asS'intervals'
p195
I10
sS'logfile'
p196
S'/mnt/hgfs/fuzz/crashers/jasper/ie.bmp/rangelog.txt'
p197
sb.